; Function Attrs: mustprogress nounwind uwtable
define dso_local noundef zeroext i1 @_ZN6snappy10UncompressEPKcmPNSt7__cxx1112basic_stringIcSt11char_traitsIcESaIcEEE(ptr noundef %compressed, i64 noundef %compressed_length, ptr noundef %uncompressed) local_unnamed_addr #2 {
entry:
  %reader.i = alloca %"class.snappy::ByteArraySource", align 8
  %cmp.not.i.i = icmp sgt i64 %compressed_length, 0
  br i1 %cmp.not.i.i, label %if.end.i.i, label %return

if.end.i.i:                                       ; preds = %entry
  %incdec.ptr.i.i = getelementptr inbounds i8, ptr %compressed, i64 1
  %0 = load i8, ptr %compressed, align 1
  %1 = and i8 %0, 127
  %and.i.i = zext nneg i8 %1 to i32
  %cmp1.i.i = icmp sgt i8 %0, -1
  br i1 %cmp1.i.i, label %if.end, label %if.end3.i.i

if.end3.i.i:                                      ; preds = %if.end.i.i
  %cmp4.not.i.not.i = icmp eq i64 %compressed_length, 1
  br i1 %cmp4.not.i.not.i, label %return, label %if.end6.i.i

if.end6.i.i:                                      ; preds = %if.end3.i.i
  %incdec.ptr7.i.i = getelementptr inbounds i8, ptr %compressed, i64 2
  %2 = load i8, ptr %incdec.ptr.i.i, align 1
  %conv8.i.i = zext i8 %2 to i32
  %and9.i.i = shl nuw nsw i32 %conv8.i.i, 7
  %shl.i.i = and i32 %and9.i.i, 16256
  %or.i.i = or disjoint i32 %shl.i.i, %and.i.i
  %cmp10.i.i = icmp sgt i8 %2, -1
  br i1 %cmp10.i.i, label %if.end, label %if.end12.i.i

if.end12.i.i:                                     ; preds = %if.end6.i.i
  %cmp13.not.i.i = icmp ugt i64 %compressed_length, 2
  br i1 %cmp13.not.i.i, label %if.end15.i.i, label %return

if.end15.i.i:                                     ; preds = %if.end12.i.i
  %incdec.ptr16.i.i = getelementptr inbounds i8, ptr %compressed, i64 3
  %3 = load i8, ptr %incdec.ptr7.i.i, align 1
  %conv17.i.i = zext i8 %3 to i32
  %and18.i.i = shl nuw nsw i32 %conv17.i.i, 14
  %shl19.i.i = and i32 %and18.i.i, 2080768
  %or20.i.i = or disjoint i32 %shl19.i.i, %or.i.i
  %cmp21.i.i = icmp sgt i8 %3, -1
  br i1 %cmp21.i.i, label %if.end, label %if.end23.i.i

if.end23.i.i:                                     ; preds = %if.end15.i.i
  %cmp24.not.i.not.i = icmp eq i64 %compressed_length, 3
  br i1 %cmp24.not.i.not.i, label %return, label %if.end26.i.i

if.end26.i.i:                                     ; preds = %if.end23.i.i
  %incdec.ptr27.i.i = getelementptr inbounds i8, ptr %compressed, i64 4
  %4 = load i8, ptr %incdec.ptr16.i.i, align 1
  %conv28.i.i = zext i8 %4 to i32
  %and29.i.i = shl nuw nsw i32 %conv28.i.i, 21
  %shl30.i.i = and i32 %and29.i.i, 266338304
  %or31.i.i = or disjoint i32 %shl30.i.i, %or20.i.i
  %cmp32.i.i = icmp sgt i8 %4, -1
  br i1 %cmp32.i.i, label %if.end, label %if.end34.i.i

if.end34.i.i:                                     ; preds = %if.end26.i.i
  %cmp35.not.i.i = icmp ugt i64 %compressed_length, 4
  br i1 %cmp35.not.i.i, label %if.end37.i.i, label %return

if.end37.i.i:                                     ; preds = %if.end34.i.i
  %5 = load i8, ptr %incdec.ptr27.i.i, align 1
  %conv39.i.i = zext i8 %5 to i32
  %shl41.i.i = shl i32 %conv39.i.i, 28
  %or42.i.i = or disjoint i32 %shl41.i.i, %or31.i.i
  %cmp43.i.i = icmp ult i8 %5, 16
  br i1 %cmp43.i.i, label %if.end, label %return

if.end:                                           ; preds = %if.end37.i.i, %if.end26.i.i, %if.end15.i.i, %if.end6.i.i, %if.end.i.i
  %v.0.i = phi i32 [ %and.i.i, %if.end.i.i ], [ %or.i.i, %if.end6.i.i ], [ %or20.i.i, %if.end15.i.i ], [ %or31.i.i, %if.end26.i.i ], [ %or42.i.i, %if.end37.i.i ]
  %conv.i = zext i32 %v.0.i to i64
  %call1 = tail call noundef i64 @_ZNKSt7__cxx1112basic_stringIcSt11char_traitsIcESaIcEE8max_sizeEv(ptr noundef nonnull align 8 dereferenceable(32) %uncompressed) #19
  %cmp = icmp ult i64 %call1, %conv.i
  br i1 %cmp, label %return, label %if.end3

if.end3:                                          ; preds = %if.end
  tail call void @_ZNSt7__cxx1112basic_stringIcSt11char_traitsIcESaIcEE6resizeEm(ptr noundef nonnull align 8 dereferenceable(32) %uncompressed, i64 noundef %conv.i) #19
  %call.i = tail call noundef zeroext i1 @_ZNKSt7__cxx1112basic_stringIcSt11char_traitsIcESaIcEE5emptyEv(ptr noundef nonnull align 8 dereferenceable(32) %uncompressed) #19
  br i1 %call.i, label %_ZN6snappy15string_as_arrayEPNSt7__cxx1112basic_stringIcSt11char_traitsIcESaIcEEE.exit, label %cond.false.i

cond.false.i:                                     ; preds = %if.end3
  %call1.i = tail call ptr @_ZNSt7__cxx1112basic_stringIcSt11char_traitsIcESaIcEE5beginEv(ptr noundef nonnull align 8 dereferenceable(32) %uncompressed) #19
  br label %_ZN6snappy15string_as_arrayEPNSt7__cxx1112basic_stringIcSt11char_traitsIcESaIcEEE.exit

_ZN6snappy15string_as_arrayEPNSt7__cxx1112basic_stringIcSt11char_traitsIcESaIcEEE.exit: ; preds = %if.end3, %cond.false.i
  %cond.i = phi ptr [ %call1.i, %cond.false.i ], [ null, %if.end3 ]
  call void @llvm.lifetime.start.p0(i64 24, ptr nonnull %reader.i)
  store ptr getelementptr inbounds ({ [7 x ptr] }, ptr @_ZTVN6snappy15ByteArraySourceE, i64 0, i32 0, i64 2), ptr %reader.i, align 8
  %ptr_.i.i = getelementptr inbounds i8, ptr %reader.i, i64 8
  store ptr %compressed, ptr %ptr_.i.i, align 8
  %left_.i.i = getelementptr inbounds i8, ptr %reader.i, i64 16
  store i64 %compressed_length, ptr %left_.i.i, align 8
  %call.i5 = call noundef zeroext i1 @_ZN6snappy13RawUncompressEPNS_6SourceEPc(ptr noundef nonnull %reader.i, ptr noundef %cond.i)
  call void @_ZN6snappy15ByteArraySourceD1Ev(ptr noundef nonnull align 8 dereferenceable(24) %reader.i) #19
  call void @llvm.lifetime.end.p0(i64 24, ptr nonnull %reader.i)
  br label %return

return:                                           ; preds = %if.end37.i.i, %if.end34.i.i, %if.end23.i.i, %if.end12.i.i, %if.end3.i.i, %entry, %if.end, %_ZN6snappy15string_as_arrayEPNSt7__cxx1112basic_stringIcSt11char_traitsIcESaIcEEE.exit
  %retval.0 = phi i1 [ %call.i5, %_ZN6snappy15string_as_arrayEPNSt7__cxx1112basic_stringIcSt11char_traitsIcESaIcEEE.exit ], [ false, %if.end ], [ false, %entry ], [ false, %if.end3.i.i ], [ false, %if.end12.i.i ], [ false, %if.end23.i.i ], [ false, %if.end34.i.i ], [ false, %if.end37.i.i ]
  ret i1 %retval.0
}